target datalayout = "e-m:e-p270:32:32-p271:32:32-p272:64:64-i64:64-i128:128-f80:128-n8:16:32:64-S128"
target triple = "x86_64-pc-linux-gnu"

%struct.RString = type { %struct.RBasic, i64, %union.anon.12 }
%struct.RBasic = type { i64, i64 }
%union.anon.12 = type { %struct.anon.13 }
%struct.anon.13 = type { ptr, %union.anon.14 }
%union.anon.14 = type { i64 }
%struct.sockaddr = type { i16, [14 x i8] }

@rb_eTypeError = external global i64, align 8
@rb_eArgError = external global i64, align 8
@.str.62 = private unnamed_addr constant [19 x i8] c"too short sockaddr\00", align 1
@.str.65 = private unnamed_addr constant [24 x i8] c"not an AF_UNIX sockaddr\00", align 1
@.str.66 = private unnamed_addr constant [42 x i8] c"too long sockaddr_un - %ld longer than %d\00", align 1

; Function Attrs: inlinehint nounwind sspstrong uwtable
define internal i32 @rb_long2int_inline(i64 noundef %0) #8 {
  %2 = alloca i64, align 8
  %3 = alloca i32, align 4
  store i64 %0, ptr %2, align 8, !tbaa !11
  call void @llvm.lifetime.start.p0(i64 4, ptr %3) #24
  %4 = load i64, ptr %2, align 8, !tbaa !11
  %5 = trunc i64 %4 to i32
  store i32 %5, ptr %3, align 4, !tbaa !13
  %6 = load i32, ptr %3, align 4, !tbaa !13
  %7 = sext i32 %6 to i64
  %8 = load i64, ptr %2, align 8, !tbaa !11
  %9 = icmp ne i64 %7, %8
  br i1 %9, label %10, label %12

10:                                               ; preds = %1
  %11 = load i64, ptr %2, align 8, !tbaa !11
  call void @rb_out_of_int(i64 noundef %11) #30
  unreachable

12:                                               ; preds = %1
  %13 = load i32, ptr %3, align 4, !tbaa !13
  call void @llvm.lifetime.end.p0(i64 4, ptr %3) #24
  ret i32 %13
}

; Function Attrs: inlinehint nounwind sspstrong uwtable
define internal i32 @RSTRING_LENINT(i64 noundef %0) #8 {
  %2 = alloca i64, align 8
  store i64 %0, ptr %2, align 8, !tbaa !11
  %3 = load i64, ptr %2, align 8, !tbaa !11
  %4 = call i64 @RSTRING_LEN(i64 noundef %3) #25
  %5 = call i32 @rb_long2int_inline(i64 noundef %4)
  ret i32 %5
}

; Function Attrs: inlinehint nounwind sspstrong willreturn memory(read) uwtable
define internal i64 @RSTRING_LEN(i64 noundef %0) #6 {
  %2 = alloca i64, align 8
  store i64 %0, ptr %2, align 8, !tbaa !11
  %3 = load i64, ptr %2, align 8, !tbaa !11
  %4 = inttoptr i64 %3 to ptr
  %5 = getelementptr inbounds nuw %struct.RString, ptr %4, i32 0, i32 1
  %6 = load i64, ptr %5, align 8, !tbaa !18
  ret i64 %6
}

; Function Attrs: nounwind sspstrong uwtable
define internal i64 @sock_s_unpack_sockaddr_un(i64 noundef %0, i64 noundef %1) #0 {
  %3 = alloca i64, align 8
  %4 = alloca i64, align 8
  %5 = alloca ptr, align 8
  %6 = alloca i64, align 8
  store i64 %0, ptr %3, align 8, !tbaa !11
  store i64 %1, ptr %4, align 8, !tbaa !11
  call void @llvm.lifetime.start.p0(i64 8, ptr %5) #24
  call void @llvm.lifetime.start.p0(i64 8, ptr %6) #24
  %7 = call ptr @rsock_sockaddr_string_value_ptr(ptr noundef %4)
  store ptr %7, ptr %5, align 8, !tbaa !89
  %8 = load i64, ptr %4, align 8, !tbaa !11
  %9 = call i64 @RSTRING_LEN(i64 noundef %8) #25
  %10 = load ptr, ptr %5, align 8, !tbaa !89
  %11 = getelementptr inbounds nuw %struct.sockaddr, ptr %10, i32 0, i32 0
  %12 = getelementptr inbounds nuw i8, ptr %11, i64 2
  %13 = load ptr, ptr %5, align 8, !tbaa !89
  %14 = ptrtoint ptr %12 to i64
  %15 = ptrtoint ptr %13 to i64
  %16 = sub i64 %14, %15
  %17 = icmp slt i64 %9, %16
  br i1 %17, label %18, label %20

18:                                               ; preds = %2
  %19 = load i64, ptr @rb_eArgError, align 8, !tbaa !11
  call void (i64, ptr, ...) @rb_raise(i64 noundef %19, ptr noundef @.str.62) #23
  unreachable

20:                                               ; preds = %2
  %21 = load ptr, ptr %5, align 8, !tbaa !89
  %22 = getelementptr inbounds nuw %struct.sockaddr, ptr %21, i32 0, i32 0
  %23 = load i16, ptr %22, align 2, !tbaa !46
  %24 = zext i16 %23 to i32
  %25 = icmp ne i32 %24, 1
  br i1 %25, label %26, label %28

26:                                               ; preds = %20
  %27 = load i64, ptr @rb_eArgError, align 8, !tbaa !11
  call void (i64, ptr, ...) @rb_raise(i64 noundef %27, ptr noundef @.str.65) #23
  unreachable

28:                                               ; preds = %20
  %29 = load i64, ptr %4, align 8, !tbaa !11
  %30 = call i64 @RSTRING_LEN(i64 noundef %29) #25
  %31 = icmp ult i64 110, %30
  br i1 %31, label %32, label %36

32:                                               ; preds = %28
  %33 = load i64, ptr @rb_eTypeError, align 8, !tbaa !11
  %34 = load i64, ptr %4, align 8, !tbaa !11
  %35 = call i64 @RSTRING_LEN(i64 noundef %34) #25
  call void (i64, ptr, ...) @rb_raise(i64 noundef %33, ptr noundef @.str.66, i64 noundef %35, i32 noundef 110) #23
  unreachable

36:                                               ; preds = %28
  %37 = load ptr, ptr %5, align 8, !tbaa !89
  %38 = load i64, ptr %4, align 8, !tbaa !11
  %39 = call i32 @RSTRING_LENINT(i64 noundef %38)
  %40 = call i64 @rsock_unixpath_str(ptr noundef %37, i32 noundef %39)
  store i64 %40, ptr %6, align 8, !tbaa !11
  %41 = load i64, ptr %6, align 8, !tbaa !11
  call void @llvm.lifetime.end.p0(i64 8, ptr %6) #24
  call void @llvm.lifetime.end.p0(i64 8, ptr %5) #24
  ret i64 %41
}