; Function Attrs: nounwind sspstrong uwtable
define internal i64 @sock_s_unpack_sockaddr_un(i64 %0, i64 noundef %1) #0 {
  %3 = alloca i64, align 8
  store i64 %1, ptr %3, align 8, !tbaa !10
  %4 = call ptr @rsock_sockaddr_string_value_ptr(ptr noundef nonnull %3) #16
  %5 = load i64, ptr %3, align 8, !tbaa !10
  %6 = inttoptr i64 %5 to ptr
  %7 = getelementptr inbounds nuw i8, ptr %6, i64 16
  %8 = load i64, ptr %7, align 8, !tbaa !17
  %9 = icmp slt i64 %8, 2
  br i1 %9, label %10, label %12

10:                                               ; preds = %2
  %11 = load i64, ptr @rb_eArgError, align 8, !tbaa !10
  call void (i64, ptr, ...) @rb_raise(i64 noundef %11, ptr noundef nonnull @.str.62) #18
  unreachable

12:                                               ; preds = %2
  %13 = load i16, ptr %4, align 2, !tbaa !35
  %.not = icmp eq i16 %13, 1
  br i1 %.not, label %16, label %14

14:                                               ; preds = %12
  %15 = load i64, ptr @rb_eArgError, align 8, !tbaa !10
  call void (i64, ptr, ...) @rb_raise(i64 noundef %15, ptr noundef nonnull @.str.65) #18
  unreachable

16:                                               ; preds = %12
  %17 = icmp samesign ugt i64 %8, 110
  br i1 %17, label %18, label %RSTRING_LENINT.exit

18:                                               ; preds = %16
  %19 = load i64, ptr @rb_eTypeError, align 8, !tbaa !10
  call void (i64, ptr, ...) @rb_raise(i64 noundef %19, ptr noundef nonnull @.str.66, i64 noundef %8, i32 noundef 110) #18
  unreachable

RSTRING_LENINT.exit:                              ; preds = %16
  %20 = trunc nuw i64 %8 to i32
  %21 = call i64 @rsock_unixpath_str(ptr noundef nonnull %4, i32 noundef %20) #16
  ret i64 %21
}